target datalayout = "e-m:e-p270:32:32-p271:32:32-p272:64:64-i64:64-i128:128-f80:128-n8:16:32:64-S128"
target triple = "x86_64-pc-linux-gnu"

; Function Attrs: nounwind uwtable
define internal void @ac3_downmix_5_to_1_symmetric_c_fixed(ptr noundef %0, ptr noundef %1, i32 noundef %2) #0 {
  %4 = alloca ptr, align 8
  %5 = alloca ptr, align 8
  %6 = alloca i32, align 4
  %7 = alloca i32, align 4
  %8 = alloca i64, align 8
  %9 = alloca i16, align 2
  %10 = alloca i16, align 2
  %11 = alloca i16, align 2
  store ptr %0, ptr %4, align 8, !tbaa !9
  store ptr %1, ptr %5, align 8, !tbaa !12
  store i32 %2, ptr %6, align 4, !tbaa !14
  call void @llvm.lifetime.start.p0(i64 4, ptr %7) #6
  call void @llvm.lifetime.start.p0(i64 8, ptr %8) #6
  call void @llvm.lifetime.start.p0(i64 2, ptr %9) #6
  %12 = load ptr, ptr %5, align 8, !tbaa !12
  %13 = getelementptr inbounds ptr, ptr %12, i64 0
  %14 = load ptr, ptr %13, align 8, !tbaa !20
  %15 = getelementptr inbounds i16, ptr %14, i64 0
  %16 = load i16, ptr %15, align 2, !tbaa !22
  store i16 %16, ptr %9, align 2, !tbaa !22
  call void @llvm.lifetime.start.p0(i64 2, ptr %10) #6
  %17 = load ptr, ptr %5, align 8, !tbaa !12
  %18 = getelementptr inbounds ptr, ptr %17, i64 0
  %19 = load ptr, ptr %18, align 8, !tbaa !20
  %20 = getelementptr inbounds i16, ptr %19, i64 1
  %21 = load i16, ptr %20, align 2, !tbaa !22
  store i16 %21, ptr %10, align 2, !tbaa !22
  call void @llvm.lifetime.start.p0(i64 2, ptr %11) #6
  %22 = load ptr, ptr %5, align 8, !tbaa !12
  %23 = getelementptr inbounds ptr, ptr %22, i64 0
  %24 = load ptr, ptr %23, align 8, !tbaa !20
  %25 = getelementptr inbounds i16, ptr %24, i64 3
  %26 = load i16, ptr %25, align 2, !tbaa !22
  store i16 %26, ptr %11, align 2, !tbaa !22
  store i32 0, ptr %7, align 4, !tbaa !14
  br label %27

27:                                               ; preds = %101, %3
  %28 = load i32, ptr %7, align 4, !tbaa !14
  %29 = load i32, ptr %6, align 4, !tbaa !14
  %30 = icmp slt i32 %28, %29
  br i1 %30, label %31, label %104

31:                                               ; preds = %27
  %32 = load ptr, ptr %4, align 8, !tbaa !9
  %33 = getelementptr inbounds ptr, ptr %32, i64 0
  %34 = load ptr, ptr %33, align 8, !tbaa !24
  %35 = load i32, ptr %7, align 4, !tbaa !14
  %36 = sext i32 %35 to i64
  %37 = getelementptr inbounds i32, ptr %34, i64 %36
  %38 = load i32, ptr %37, align 4, !tbaa !14
  %39 = sext i32 %38 to i64
  %40 = load i16, ptr %9, align 2, !tbaa !22
  %41 = sext i16 %40 to i64
  %42 = mul nsw i64 %39, %41
  %43 = load ptr, ptr %4, align 8, !tbaa !9
  %44 = getelementptr inbounds ptr, ptr %43, i64 1
  %45 = load ptr, ptr %44, align 8, !tbaa !24
  %46 = load i32, ptr %7, align 4, !tbaa !14
  %47 = sext i32 %46 to i64
  %48 = getelementptr inbounds i32, ptr %45, i64 %47
  %49 = load i32, ptr %48, align 4, !tbaa !14
  %50 = sext i32 %49 to i64
  %51 = load i16, ptr %10, align 2, !tbaa !22
  %52 = sext i16 %51 to i64
  %53 = mul nsw i64 %50, %52
  %54 = add nsw i64 %42, %53
  %55 = load ptr, ptr %4, align 8, !tbaa !9
  %56 = getelementptr inbounds ptr, ptr %55, i64 2
  %57 = load ptr, ptr %56, align 8, !tbaa !24
  %58 = load i32, ptr %7, align 4, !tbaa !14
  %59 = sext i32 %58 to i64
  %60 = getelementptr inbounds i32, ptr %57, i64 %59
  %61 = load i32, ptr %60, align 4, !tbaa !14
  %62 = sext i32 %61 to i64
  %63 = load i16, ptr %9, align 2, !tbaa !22
  %64 = sext i16 %63 to i64
  %65 = mul nsw i64 %62, %64
  %66 = add nsw i64 %54, %65
  %67 = load ptr, ptr %4, align 8, !tbaa !9
  %68 = getelementptr inbounds ptr, ptr %67, i64 3
  %69 = load ptr, ptr %68, align 8, !tbaa !24
  %70 = load i32, ptr %7, align 4, !tbaa !14
  %71 = sext i32 %70 to i64
  %72 = getelementptr inbounds i32, ptr %69, i64 %71
  %73 = load i32, ptr %72, align 4, !tbaa !14
  %74 = sext i32 %73 to i64
  %75 = load i16, ptr %11, align 2, !tbaa !22
  %76 = sext i16 %75 to i64
  %77 = mul nsw i64 %74, %76
  %78 = add nsw i64 %66, %77
  %79 = load ptr, ptr %4, align 8, !tbaa !9
  %80 = getelementptr inbounds ptr, ptr %79, i64 4
  %81 = load ptr, ptr %80, align 8, !tbaa !24
  %82 = load i32, ptr %7, align 4, !tbaa !14
  %83 = sext i32 %82 to i64
  %84 = getelementptr inbounds i32, ptr %81, i64 %83
  %85 = load i32, ptr %84, align 4, !tbaa !14
  %86 = sext i32 %85 to i64
  %87 = load i16, ptr %11, align 2, !tbaa !22
  %88 = sext i16 %87 to i64
  %89 = mul nsw i64 %86, %88
  %90 = add nsw i64 %78, %89
  store i64 %90, ptr %8, align 8, !tbaa !26
  %91 = load i64, ptr %8, align 8, !tbaa !26
  %92 = add nsw i64 %91, 2048
  %93 = ashr i64 %92, 12
  %94 = trunc i64 %93 to i32
  %95 = load ptr, ptr %4, align 8, !tbaa !9
  %96 = getelementptr inbounds ptr, ptr %95, i64 0
  %97 = load ptr, ptr %96, align 8, !tbaa !24
  %98 = load i32, ptr %7, align 4, !tbaa !14
  %99 = sext i32 %98 to i64
  %100 = getelementptr inbounds i32, ptr %97, i64 %99
  store i32 %94, ptr %100, align 4, !tbaa !14
  br label %101

101:                                              ; preds = %31
  %102 = load i32, ptr %7, align 4, !tbaa !14
  %103 = add nsw i32 %102, 1
  store i32 %103, ptr %7, align 4, !tbaa !14
  br label %27, !llvm.loop !30

104:                                              ; preds = %27
  call void @llvm.lifetime.end.p0(i64 2, ptr %11) #6
  call void @llvm.lifetime.end.p0(i64 2, ptr %10) #6
  call void @llvm.lifetime.end.p0(i64 2, ptr %9) #6
  call void @llvm.lifetime.end.p0(i64 8, ptr %8) #6
  call void @llvm.lifetime.end.p0(i64 4, ptr %7) #6
  ret void
}