; Function Attrs: nofree norecurse nosync nounwind memory(readwrite, inaccessiblemem: none) uwtable
define internal void @ac3_downmix_5_to_1_symmetric_c_fixed(ptr noundef readonly captures(none) %0, ptr noundef readonly captures(none) %1, i32 noundef %2) #1 {
  %4 = icmp sgt i32 %2, 0
  br i1 %4, label %.lr.ph, label %._crit_edge

.lr.ph:                                           ; preds = %3
  %5 = load ptr, ptr %1, align 8, !tbaa !12
  %6 = getelementptr inbounds nuw i8, ptr %5, i64 6
  %7 = load i16, ptr %6, align 2, !tbaa !14
  %8 = getelementptr inbounds nuw i8, ptr %5, i64 2
  %9 = load i16, ptr %8, align 2, !tbaa !14
  %10 = load i16, ptr %5, align 2, !tbaa !14
  %11 = load ptr, ptr %0, align 8, !tbaa !16
  %12 = sext i16 %10 to i64
  %13 = getelementptr inbounds nuw i8, ptr %0, i64 8
  %14 = load ptr, ptr %13, align 8, !tbaa !16
  %15 = sext i16 %9 to i64
  %16 = getelementptr inbounds nuw i8, ptr %0, i64 16
  %17 = load ptr, ptr %16, align 8, !tbaa !16
  %18 = getelementptr inbounds nuw i8, ptr %0, i64 24
  %19 = load ptr, ptr %18, align 8, !tbaa !16
  %20 = sext i16 %7 to i64
  %21 = getelementptr inbounds nuw i8, ptr %0, i64 32
  %22 = load ptr, ptr %21, align 8, !tbaa !16
  %wide.trip.count = zext nneg i32 %2 to i64
  br label %23

23:                                               ; preds = %.lr.ph, %23
  %indvars.iv = phi i64 [ 0, %.lr.ph ], [ %indvars.iv.next, %23 ]
  %24 = getelementptr inbounds nuw i32, ptr %11, i64 %indvars.iv
  %25 = load i32, ptr %24, align 4, !tbaa !18
  %26 = sext i32 %25 to i64
  %27 = getelementptr inbounds nuw i32, ptr %14, i64 %indvars.iv
  %28 = load i32, ptr %27, align 4, !tbaa !18
  %29 = sext i32 %28 to i64
  %30 = mul nsw i64 %29, %15
  %31 = getelementptr inbounds nuw i32, ptr %17, i64 %indvars.iv
  %32 = load i32, ptr %31, align 4, !tbaa !18
  %33 = sext i32 %32 to i64
  %34 = getelementptr inbounds nuw i32, ptr %19, i64 %indvars.iv
  %35 = load i32, ptr %34, align 4, !tbaa !18
  %36 = sext i32 %35 to i64
  %37 = getelementptr inbounds nuw i32, ptr %22, i64 %indvars.iv
  %38 = load i32, ptr %37, align 4, !tbaa !18
  %39 = sext i32 %38 to i64
  %reass.add = add nsw i64 %39, %36
  %reass.mul = mul nsw i64 %reass.add, %20
  %reass.add23 = add nsw i64 %33, %26
  %reass.mul24 = mul nsw i64 %reass.add23, %12
  %40 = add nsw i64 %30, 2048
  %41 = add nsw i64 %40, %reass.mul24
  %42 = add nsw i64 %41, %reass.mul
  %43 = lshr i64 %42, 12
  %44 = trunc i64 %43 to i32
  store i32 %44, ptr %24, align 4, !tbaa !18
  %indvars.iv.next = add nuw nsw i64 %indvars.iv, 1
  %exitcond.not = icmp eq i64 %indvars.iv.next, %wide.trip.count
  br i1 %exitcond.not, label %._crit_edge, label %23, !llvm.loop !25

._crit_edge:                                      ; preds = %23, %3
  ret void
}